target datalayout = "e-m:e-p270:32:32-p271:32:32-p272:64:64-i64:64-i128:128-f80:128-n8:16:32:64-S128"
target triple = "x86_64-pc-linux-gnu"

%struct._php_random_algo = type { i64, ptr, ptr, ptr, ptr }
%struct._zend_executor_globals = type { %struct._zval_struct, %struct._zval_struct, [32 x ptr], ptr, ptr, %struct._zend_array, %struct._zend_array, ptr, i32, i8, %struct._zval_struct, i32, ptr, ptr, ptr, ptr, ptr, ptr, i64, ptr, ptr, i32, ptr, i32, i64, i32, i32, i32, i8, i8, %struct.zend_atomic_bool_s, %struct.zend_atomic_bool_s, ptr, i64, ptr, ptr, %struct._zend_array, %struct._zend_array, i32, i8, %struct._zval_struct, %struct._zval_struct, %struct._zend_stack, %struct._zend_stack, %struct._zend_stack, ptr, i32, i32, i64, ptr, ptr, ptr, %struct._zend_objects_store, %struct._zend_lazy_objects_store, ptr, ptr, ptr, [3 x %struct._zend_op], ptr, i8, i8, i64, i32, i32, ptr, [16 x %struct._HashTableIterator], ptr, %union._zend_function, %struct._zend_op, %struct._zend_array, i64, %struct.zend_get_gc_buffer, ptr, ptr, ptr, i64, i8, i32, ptr, ptr, i64, %struct._zend_call_stack, i64, i64, %struct._zend_strtod_state, [6 x ptr] }
%struct.zend_atomic_bool_s = type { i8 }
%struct._zval_struct = type { %union._zend_value, %union.anon, %union.anon.2 }
%union._zend_value = type { i64 }
%union.anon = type { i32 }
%union.anon.2 = type { i32 }
%struct._zend_stack = type { i32, i32, i32, ptr }
%struct._zend_objects_store = type { ptr, i32, i32, i32 }
%struct._zend_lazy_objects_store = type { %struct._zend_array }
%struct._HashTableIterator = type { ptr, i32, i32 }
%union._zend_function = type { %struct._zend_op_array }
%struct._zend_op_array = type { i8, [3 x i8], i32, ptr, ptr, ptr, i32, i32, ptr, ptr, ptr, ptr, i32, ptr, i32, i32, i32, ptr, ptr, ptr, ptr, ptr, i32, i32, ptr, ptr, ptr, i32, i32, i32, i32, ptr, ptr, [6 x ptr] }
%struct._zend_op = type { ptr, %union._znode_op, %union._znode_op, %union._znode_op, i32, i32, i8, i8, i8, i8 }
%union._znode_op = type { i32 }
%struct._zend_array = type { %struct._zend_refcounted_h, %union.anon.4, i32, %union.anon.6, i32, i32, i32, i32, i64, ptr }
%struct._zend_refcounted_h = type { i32, %union.anon.3 }
%union.anon.3 = type { i32 }
%union.anon.4 = type { i32 }
%union.anon.6 = type { ptr }
%struct.zend_get_gc_buffer = type { ptr, ptr, ptr }
%struct._zend_call_stack = type { ptr, i64 }
%struct._zend_strtod_state = type { [8 x ptr], ptr, ptr }
%struct._php_random_algo_with_state = type { ptr, ptr }
%struct._zend_execute_data = type { ptr, ptr, ptr, ptr, %struct._zval_struct, ptr, ptr, ptr, ptr }
%struct._php_random_engine = type { %struct._php_random_algo_with_state, %struct._zend_object }
%struct._zend_object = type { %struct._zend_refcounted_h, i32, i32, ptr, ptr, ptr, [1 x %struct._zval_struct] }
%struct.anon.0 = type { i8, i8, %union.anon.1 }
%union.anon.1 = type { i16 }
%struct._zend_refcounted = type { %struct._zend_refcounted_h }

@executor_globals = external global %struct._zend_executor_globals, align 8
@.str.3 = private unnamed_addr constant [24 x i8] c"Engine serialize failed\00", align 1

; Function Attrs: alwaysinline nounwind uwtable
define internal i32 @zend_gc_addref(ptr noundef %0) #7 {
  %2 = alloca ptr, align 8
  store ptr %0, ptr %2, align 8, !tbaa !108
  br label %3

3:                                                ; preds = %1
  br label %4

4:                                                ; preds = %3
  %5 = load ptr, ptr %2, align 8, !tbaa !108
  %6 = getelementptr inbounds nuw %struct._zend_refcounted_h, ptr %5, i32 0, i32 0
  %7 = load i32, ptr %6, align 4, !tbaa !110
  %8 = add i32 %7, 1
  store i32 %8, ptr %6, align 4, !tbaa !110
  ret i32 %8
}

; Function Attrs: alwaysinline nounwind uwtable
define internal i32 @zval_addref_p(ptr noundef %0) #7 {
  %2 = alloca ptr, align 8
  store ptr %0, ptr %2, align 8, !tbaa !28
  %3 = load ptr, ptr %2, align 8, !tbaa !28
  %4 = getelementptr inbounds nuw %struct._zval_struct, ptr %3, i32 0, i32 1
  %5 = getelementptr inbounds nuw %struct.anon.0, ptr %4, i32 0, i32 1
  %6 = load i8, ptr %5, align 1, !tbaa !32
  %7 = zext i8 %6 to i32
  %8 = icmp ne i32 %7, 0
  call void @llvm.assume(i1 %8)
  %9 = load ptr, ptr %2, align 8, !tbaa !28
  %10 = getelementptr inbounds nuw %struct._zval_struct, ptr %9, i32 0, i32 0
  %11 = load ptr, ptr %10, align 8, !tbaa !32
  %12 = getelementptr inbounds nuw %struct._zend_refcounted, ptr %11, i32 0, i32 0
  %13 = call i32 @zend_gc_addref(ptr noundef %12)
  ret i32 %13
}

; Function Attrs: inlinehint nounwind uwtable
define internal ptr @php_random_engine_from_obj(ptr noundef %0) #0 {
  %2 = alloca ptr, align 8
  store ptr %0, ptr %2, align 8, !tbaa !73
  %3 = load ptr, ptr %2, align 8, !tbaa !73
  %4 = getelementptr inbounds i8, ptr %3, i64 -16
  ret ptr %4
}

; Function Attrs: nounwind uwtable
define hidden void @zim_Random_Engine_Mt19937___serialize(ptr noundef %0, ptr noundef %1) #2 {
  %3 = alloca ptr, align 8
  %4 = alloca ptr, align 8
  %5 = alloca ptr, align 8
  %6 = alloca %struct._zval_struct, align 8
  %7 = alloca i32, align 4
  %8 = alloca ptr, align 8
  %9 = alloca ptr, align 8
  %10 = alloca ptr, align 8
  %11 = alloca ptr, align 8
  %12 = alloca ptr, align 8
  %13 = alloca ptr, align 8
  %14 = alloca ptr, align 8
  store ptr %0, ptr %3, align 8, !tbaa !36
  store ptr %1, ptr %4, align 8, !tbaa !28
  call void @llvm.lifetime.start.p0(i64 8, ptr %5) #10
  %15 = load ptr, ptr %3, align 8, !tbaa !36
  %16 = getelementptr inbounds nuw %struct._zend_execute_data, ptr %15, i32 0, i32 4
  %17 = getelementptr inbounds nuw %struct._zval_struct, ptr %16, i32 0, i32 0
  %18 = load ptr, ptr %17, align 8, !tbaa !32
  %19 = call ptr @php_random_engine_from_obj(ptr noundef %18)
  store ptr %19, ptr %5, align 8, !tbaa !81
  call void @llvm.lifetime.start.p0(i64 16, ptr %6) #10
  br label %20

20:                                               ; preds = %2
  %21 = load ptr, ptr %3, align 8, !tbaa !36
  %22 = getelementptr inbounds nuw %struct._zend_execute_data, ptr %21, i32 0, i32 4
  %23 = getelementptr inbounds nuw %struct._zval_struct, ptr %22, i32 0, i32 2
  %24 = load i32, ptr %23, align 4, !tbaa !32
  %25 = icmp ne i32 %24, 0
  %26 = xor i1 %25, true
  %27 = xor i1 %26, true
  %28 = zext i1 %27 to i32
  %29 = sext i32 %28 to i64
  %30 = call i64 @llvm.expect.i64(i64 %29, i64 0)
  %31 = icmp ne i64 %30, 0
  br i1 %31, label %32, label %33

32:                                               ; preds = %20
  call void @zend_wrong_parameters_none_error()
  store i32 1, ptr %7, align 4
  br label %108

33:                                               ; preds = %20
  br label %34

34:                                               ; preds = %33
  br label %35

35:                                               ; preds = %34
  br label %36

36:                                               ; preds = %35
  call void @llvm.lifetime.start.p0(i64 8, ptr %8) #10
  %37 = call ptr @_zend_new_array_0()
  store ptr %37, ptr %8, align 8, !tbaa !26
  call void @llvm.lifetime.start.p0(i64 8, ptr %9) #10
  %38 = load ptr, ptr %4, align 8, !tbaa !28
  store ptr %38, ptr %9, align 8, !tbaa !28
  %39 = load ptr, ptr %8, align 8, !tbaa !26
  %40 = load ptr, ptr %9, align 8, !tbaa !28
  %41 = getelementptr inbounds nuw %struct._zval_struct, ptr %40, i32 0, i32 0
  store ptr %39, ptr %41, align 8, !tbaa !32
  %42 = load ptr, ptr %9, align 8, !tbaa !28
  %43 = getelementptr inbounds nuw %struct._zval_struct, ptr %42, i32 0, i32 1
  store i32 775, ptr %43, align 8, !tbaa !32
  call void @llvm.lifetime.end.p0(i64 8, ptr %9) #10
  call void @llvm.lifetime.end.p0(i64 8, ptr %8) #10
  br label %44

44:                                               ; preds = %36
  br label %45

45:                                               ; preds = %44
  br label %46

46:                                               ; preds = %45
  call void @llvm.lifetime.start.p0(i64 8, ptr %10) #10
  %47 = load ptr, ptr %5, align 8, !tbaa !81
  %48 = getelementptr inbounds nuw %struct._php_random_engine, ptr %47, i32 0, i32 1
  %49 = call ptr @zend_std_get_properties(ptr noundef %48)
  store ptr %49, ptr %10, align 8, !tbaa !26
  call void @llvm.lifetime.start.p0(i64 8, ptr %11) #10
  store ptr %6, ptr %11, align 8, !tbaa !28
  %50 = load ptr, ptr %10, align 8, !tbaa !26
  %51 = load ptr, ptr %11, align 8, !tbaa !28
  %52 = getelementptr inbounds nuw %struct._zval_struct, ptr %51, i32 0, i32 0
  store ptr %50, ptr %52, align 8, !tbaa !32
  %53 = load ptr, ptr %11, align 8, !tbaa !28
  %54 = getelementptr inbounds nuw %struct._zval_struct, ptr %53, i32 0, i32 1
  store i32 775, ptr %54, align 8, !tbaa !32
  call void @llvm.lifetime.end.p0(i64 8, ptr %11) #10
  call void @llvm.lifetime.end.p0(i64 8, ptr %10) #10
  br label %55

55:                                               ; preds = %46
  br label %56

56:                                               ; preds = %55
  br label %57

57:                                               ; preds = %56
  call void @llvm.lifetime.start.p0(i64 8, ptr %12) #10
  store ptr %6, ptr %12, align 8, !tbaa !28
  %58 = load ptr, ptr %12, align 8, !tbaa !28
  %59 = getelementptr inbounds nuw %struct._zval_struct, ptr %58, i32 0, i32 1
  %60 = getelementptr inbounds nuw %struct.anon.0, ptr %59, i32 0, i32 1
  %61 = load i8, ptr %60, align 1, !tbaa !32
  %62 = zext i8 %61 to i32
  %63 = icmp ne i32 %62, 0
  br i1 %63, label %64, label %67

64:                                               ; preds = %57
  %65 = load ptr, ptr %12, align 8, !tbaa !28
  %66 = call i32 @zval_addref_p(ptr noundef %65)
  br label %67

67:                                               ; preds = %64, %57
  call void @llvm.lifetime.end.p0(i64 8, ptr %12) #10
  br label %68

68:                                               ; preds = %67
  br label %69

69:                                               ; preds = %68
  %70 = load ptr, ptr %4, align 8, !tbaa !28
  %71 = getelementptr inbounds nuw %struct._zval_struct, ptr %70, i32 0, i32 0
  %72 = load ptr, ptr %71, align 8, !tbaa !32
  %73 = call ptr @zend_hash_next_index_insert(ptr noundef %72, ptr noundef %6)
  br label %74

74:                                               ; preds = %69
  call void @llvm.lifetime.start.p0(i64 8, ptr %13) #10
  %75 = call ptr @_zend_new_array_0()
  store ptr %75, ptr %13, align 8, !tbaa !26
  call void @llvm.lifetime.start.p0(i64 8, ptr %14) #10
  store ptr %6, ptr %14, align 8, !tbaa !28
  %76 = load ptr, ptr %13, align 8, !tbaa !26
  %77 = load ptr, ptr %14, align 8, !tbaa !28
  %78 = getelementptr inbounds nuw %struct._zval_struct, ptr %77, i32 0, i32 0
  store ptr %76, ptr %78, align 8, !tbaa !32
  %79 = load ptr, ptr %14, align 8, !tbaa !28
  %80 = getelementptr inbounds nuw %struct._zval_struct, ptr %79, i32 0, i32 1
  store i32 775, ptr %80, align 8, !tbaa !32
  call void @llvm.lifetime.end.p0(i64 8, ptr %14) #10
  call void @llvm.lifetime.end.p0(i64 8, ptr %13) #10
  br label %81

81:                                               ; preds = %74
  br label %82

82:                                               ; preds = %81
  %83 = load ptr, ptr %5, align 8, !tbaa !81
  %84 = getelementptr inbounds nuw %struct._php_random_engine, ptr %83, i32 0, i32 0
  %85 = getelementptr inbounds nuw %struct._php_random_algo_with_state, ptr %84, i32 0, i32 0
  %86 = load ptr, ptr %85, align 8, !tbaa !83
  %87 = getelementptr inbounds nuw %struct._php_random_algo, ptr %86, i32 0, i32 3
  %88 = load ptr, ptr %87, align 8, !tbaa !87
  %89 = load ptr, ptr %5, align 8, !tbaa !81
  %90 = getelementptr inbounds nuw %struct._php_random_engine, ptr %89, i32 0, i32 0
  %91 = getelementptr inbounds nuw %struct._php_random_algo_with_state, ptr %90, i32 0, i32 1
  %92 = load ptr, ptr %91, align 8, !tbaa !88
  %93 = getelementptr inbounds nuw %struct._zval_struct, ptr %6, i32 0, i32 0
  %94 = load ptr, ptr %93, align 8, !tbaa !32
  %95 = call zeroext i1 %88(ptr noundef %92, ptr noundef %94)
  br i1 %95, label %103, label %96

96:                                               ; preds = %82
  %97 = call ptr @zend_throw_exception(ptr noundef null, ptr noundef @.str.3, i64 noundef 0)
  br label %98

98:                                               ; preds = %96
  %99 = load ptr, ptr getelementptr inbounds nuw (%struct._zend_executor_globals, ptr @executor_globals, i32 0, i32 54), align 8, !tbaa !46
  %100 = icmp ne ptr %99, null
  call void @llvm.assume(i1 %100)
  store i32 1, ptr %7, align 4
  br label %108

101:                                              ; No predecessors!
  br label %102

102:                                              ; preds = %101
  br label %103

103:                                              ; preds = %102, %82
  %104 = load ptr, ptr %4, align 8, !tbaa !28
  %105 = getelementptr inbounds nuw %struct._zval_struct, ptr %104, i32 0, i32 0
  %106 = load ptr, ptr %105, align 8, !tbaa !32
  %107 = call ptr @zend_hash_next_index_insert(ptr noundef %106, ptr noundef %6)
  store i32 0, ptr %7, align 4
  br label %108

108:                                              ; preds = %103, %98, %32
  call void @llvm.lifetime.end.p0(i64 16, ptr %6) #10
  call void @llvm.lifetime.end.p0(i64 8, ptr %5) #10
  %109 = load i32, ptr %7, align 4
  switch i32 %109, label %111 [
    i32 0, label %110
    i32 1, label %110
  ]

110:                                              ; preds = %108, %108
  ret void

111:                                              ; preds = %108
  unreachable
}