; Function Attrs: nounwind uwtable
define hidden void @zim_Random_Engine_Mt19937___serialize(ptr noundef readonly captures(none) %0, ptr noundef captures(none) %1) local_unnamed_addr #3 {
  %3 = alloca %struct._zval_struct, align 8
  %4 = getelementptr inbounds nuw i8, ptr %0, i64 32
  %5 = load ptr, ptr %4, align 8, !tbaa !11
  call void @llvm.lifetime.start.p0(i64 16, ptr nonnull %3) #7
  %6 = getelementptr inbounds nuw i8, ptr %0, i64 44
  %7 = load i32, ptr %6, align 4, !tbaa !11
  %.not = icmp eq i32 %7, 0
  br i1 %.not, label %9, label %8, !prof !24

8:                                                ; preds = %2
  tail call void @zend_wrong_parameters_none_error() #7
  br label %33

9:                                                ; preds = %2
  %10 = getelementptr inbounds i8, ptr %5, i64 -16
  %11 = tail call ptr @_zend_new_array_0() #7
  store ptr %11, ptr %1, align 8, !tbaa !11
  %12 = getelementptr inbounds nuw i8, ptr %1, i64 8
  store i32 775, ptr %12, align 8, !tbaa !11
  %13 = tail call ptr @zend_std_get_properties(ptr noundef nonnull %5) #7
  store ptr %13, ptr %3, align 8, !tbaa !11
  %14 = getelementptr inbounds nuw i8, ptr %3, i64 8
  store i32 775, ptr %14, align 8, !tbaa !11
  %15 = load i32, ptr %13, align 4, !tbaa !62
  %16 = add i32 %15, 1
  store i32 %16, ptr %13, align 4, !tbaa !62
  %17 = load ptr, ptr %1, align 8, !tbaa !11
  %18 = call ptr @zend_hash_next_index_insert(ptr noundef %17, ptr noundef nonnull %3) #7
  %19 = call ptr @_zend_new_array_0() #7
  store ptr %19, ptr %3, align 8, !tbaa !11
  store i32 775, ptr %14, align 8, !tbaa !11
  %20 = load ptr, ptr %10, align 8, !tbaa !64
  %21 = getelementptr inbounds nuw i8, ptr %20, i64 24
  %22 = load ptr, ptr %21, align 8, !tbaa !69
  %23 = getelementptr inbounds i8, ptr %5, i64 -8
  %24 = load ptr, ptr %23, align 8, !tbaa !70
  %25 = call zeroext i1 %22(ptr noundef %24, ptr noundef %19) #7
  br i1 %25, label %30, label %26

26:                                               ; preds = %9
  %27 = call ptr @zend_throw_exception(ptr noundef null, ptr noundef nonnull @.str.3, i64 noundef 0) #7
  %28 = load ptr, ptr getelementptr inbounds nuw (i8, ptr @executor_globals, i64 960), align 8, !tbaa !26
  %29 = icmp ne ptr %28, null
  call void @llvm.assume(i1 %29)
  br label %33

30:                                               ; preds = %9
  %31 = load ptr, ptr %1, align 8, !tbaa !11
  %32 = call ptr @zend_hash_next_index_insert(ptr noundef %31, ptr noundef nonnull %3) #7
  br label %33

33:                                               ; preds = %30, %26, %8
  call void @llvm.lifetime.end.p0(i64 16, ptr nonnull %3) #7
  ret void
}